target datalayout = "e-m:e-p270:32:32-p271:32:32-p272:64:64-i64:64-i128:128-f80:128-n8:16:32:64-S128"
target triple = "x86_64-pc-linux-gnu"

%struct.Abc_TtStore_t_ = type { i32, i32, i32, ptr }

@nWords = global i32 0, align 4

; Function Attrs: nounwind uwtable
define i32 @Abc_TruthNpnCountUniqueSort(ptr noundef %0) #0 {
  %2 = alloca ptr, align 8
  %3 = alloca i32, align 4
  %4 = alloca i32, align 4
  store ptr %0, ptr %2, align 8
  %5 = load ptr, ptr %2, align 8
  %6 = getelementptr inbounds %struct.Abc_TtStore_t_, ptr %5, i32 0, i32 1
  %7 = load i32, ptr %6, align 4
  store i32 %7, ptr @nWords, align 4
  %8 = load ptr, ptr %2, align 8
  %9 = getelementptr inbounds %struct.Abc_TtStore_t_, ptr %8, i32 0, i32 3
  %10 = load ptr, ptr %9, align 8
  %11 = load ptr, ptr %2, align 8
  %12 = getelementptr inbounds %struct.Abc_TtStore_t_, ptr %11, i32 0, i32 2
  %13 = load i32, ptr %12, align 8
  %14 = sext i32 %13 to i64
  call void @qsort(ptr noundef %10, i64 noundef %14, i64 noundef 8, ptr noundef @Abc_TruthCompare)
  store i32 1, ptr %4, align 4
  store i32 1, ptr %3, align 4
  br label %15

15:                                               ; preds = %58, %1
  %16 = load i32, ptr %3, align 4
  %17 = load ptr, ptr %2, align 8
  %18 = getelementptr inbounds %struct.Abc_TtStore_t_, ptr %17, i32 0, i32 2
  %19 = load i32, ptr %18, align 8
  %20 = icmp slt i32 %16, %19
  br i1 %20, label %21, label %61

21:                                               ; preds = %15
  %22 = load ptr, ptr %2, align 8
  %23 = getelementptr inbounds %struct.Abc_TtStore_t_, ptr %22, i32 0, i32 3
  %24 = load ptr, ptr %23, align 8
  %25 = load i32, ptr %3, align 4
  %26 = sub nsw i32 %25, 1
  %27 = sext i32 %26 to i64
  %28 = getelementptr inbounds ptr, ptr %24, i64 %27
  %29 = load ptr, ptr %28, align 8
  %30 = load ptr, ptr %2, align 8
  %31 = getelementptr inbounds %struct.Abc_TtStore_t_, ptr %30, i32 0, i32 3
  %32 = load ptr, ptr %31, align 8
  %33 = load i32, ptr %3, align 4
  %34 = sext i32 %33 to i64
  %35 = getelementptr inbounds ptr, ptr %32, i64 %34
  %36 = load ptr, ptr %35, align 8
  %37 = load i32, ptr @nWords, align 4
  %38 = sext i32 %37 to i64
  %39 = mul i64 8, %38
  %40 = call i32 @memcmp(ptr noundef %29, ptr noundef %36, i64 noundef %39) #9
  %41 = icmp ne i32 %40, 0
  br i1 %41, label %42, label %57

42:                                               ; preds = %21
  %43 = load ptr, ptr %2, align 8
  %44 = getelementptr inbounds %struct.Abc_TtStore_t_, ptr %43, i32 0, i32 3
  %45 = load ptr, ptr %44, align 8
  %46 = load i32, ptr %3, align 4
  %47 = sext i32 %46 to i64
  %48 = getelementptr inbounds ptr, ptr %45, i64 %47
  %49 = load ptr, ptr %48, align 8
  %50 = load ptr, ptr %2, align 8
  %51 = getelementptr inbounds %struct.Abc_TtStore_t_, ptr %50, i32 0, i32 3
  %52 = load ptr, ptr %51, align 8
  %53 = load i32, ptr %4, align 4
  %54 = add nsw i32 %53, 1
  store i32 %54, ptr %4, align 4
  %55 = sext i32 %53 to i64
  %56 = getelementptr inbounds ptr, ptr %52, i64 %55
  store ptr %49, ptr %56, align 8
  br label %57

57:                                               ; preds = %42, %21
  br label %58

58:                                               ; preds = %57
  %59 = load i32, ptr %3, align 4
  %60 = add nsw i32 %59, 1
  store i32 %60, ptr %3, align 4
  br label %15, !llvm.loop !11

61:                                               ; preds = %15
  %62 = load i32, ptr %4, align 4
  %63 = load ptr, ptr %2, align 8
  %64 = getelementptr inbounds %struct.Abc_TtStore_t_, ptr %63, i32 0, i32 2
  store i32 %62, ptr %64, align 8
  ret i32 %62
}