; Function Attrs: nofree nounwind uwtable
define i32 @Abc_TruthNpnCountUniqueSort(ptr noundef captures(none) %0) local_unnamed_addr #6 {
  %2 = getelementptr inbounds nuw i8, ptr %0, i64 4
  %3 = load i32, ptr %2, align 4
  store i32 %3, ptr @nWords, align 4
  %4 = getelementptr inbounds nuw i8, ptr %0, i64 16
  %5 = load ptr, ptr %4, align 8
  %6 = getelementptr inbounds nuw i8, ptr %0, i64 8
  %7 = load i32, ptr %6, align 8
  %8 = sext i32 %7 to i64
  tail call void @qsort(ptr noundef %5, i64 noundef %8, i64 noundef 8, ptr noundef nonnull @Abc_TruthCompare) #17
  %9 = load i32, ptr %6, align 8
  %10 = icmp sgt i32 %9, 1
  br i1 %10, label %.lr.ph, label %._crit_edge

.lr.ph:                                           ; preds = %1
  %11 = load i32, ptr @nWords, align 4
  %12 = sext i32 %11 to i64
  %13 = shl nsw i64 %12, 3
  br label %14

14:                                               ; preds = %.lr.ph, %25
  %15 = phi i32 [ %9, %.lr.ph ], [ %26, %25 ]
  %indvars.iv = phi i64 [ 1, %.lr.ph ], [ %indvars.iv.next, %25 ]
  %.017 = phi i32 [ 1, %.lr.ph ], [ %.1, %25 ]
  %16 = load ptr, ptr %4, align 8
  %17 = getelementptr ptr, ptr %16, i64 %indvars.iv
  %18 = getelementptr i8, ptr %17, i64 -8
  %19 = load ptr, ptr %18, align 8
  %20 = load ptr, ptr %17, align 8
  %bcmp = tail call i32 @bcmp(ptr %19, ptr %20, i64 %13)
  %.not = icmp eq i32 %bcmp, 0
  br i1 %.not, label %25, label %21

21:                                               ; preds = %14
  %22 = add nsw i32 %.017, 1
  %23 = sext i32 %.017 to i64
  %24 = getelementptr inbounds ptr, ptr %16, i64 %23
  store ptr %20, ptr %24, align 8
  %.pre = load i32, ptr %6, align 8
  br label %25

25:                                               ; preds = %14, %21
  %26 = phi i32 [ %.pre, %21 ], [ %15, %14 ]
  %.1 = phi i32 [ %22, %21 ], [ %.017, %14 ]
  %indvars.iv.next = add nuw nsw i64 %indvars.iv, 1
  %27 = sext i32 %26 to i64
  %28 = icmp slt i64 %indvars.iv.next, %27
  br i1 %28, label %14, label %._crit_edge, !llvm.loop !11

._crit_edge:                                      ; preds = %25, %1
  %.0.lcssa = phi i32 [ 1, %1 ], [ %.1, %25 ]
  store i32 %.0.lcssa, ptr %6, align 8
  ret i32 %.0.lcssa
}